; Function Attrs: inlinehint nounwind uwtable
define internal fastcc range(i32 0, 2) i32 @_Py_EnterRecursiveCall(ptr noundef %0) unnamed_addr #4 {
  %2 = tail call align 8 ptr @llvm.threadlocal.address.p0(ptr align 8 @_Py_tss_tstate)
  %3 = load ptr, ptr %2, align 8, !tbaa !97
  %4 = getelementptr inbounds nuw i8, ptr %3, i64 52
  %5 = load i32, ptr %4, align 4, !tbaa !110
  %6 = add i32 %5, -1
  store i32 %6, ptr %4, align 4, !tbaa !110
  %.not.i = icmp sgt i32 %5, -1
  br i1 %.not.i, label %_Py_EnterRecursiveCallTstate.exit, label %7

7:                                                ; preds = %1
  %8 = tail call i32 @_Py_CheckRecursiveCall(ptr noundef nonnull %3, ptr noundef %0) #8
  %9 = icmp ne i32 %8, 0
  %10 = zext i1 %9 to i32
  br label %_Py_EnterRecursiveCallTstate.exit

_Py_EnterRecursiveCallTstate.exit:                ; preds = %1, %7
  %11 = phi i32 [ 0, %1 ], [ %10, %7 ]
  ret i32 %11
}